; ModuleID = '5/908.c'
source_filename = "5/908.c"
target datalayout = "e-m:e-p270:32:32-p271:32:32-p272:64:64-i64:64-f80:128-n8:16:32:64-S128"
target triple = "x86_64-pc-linux-gnu"

@.str = private unnamed_addr constant [4 x i8] c"%lf\00", align 1
@.str.1 = private unnamed_addr constant [3 x i8] c"%s\00", align 1
@.str.2 = private unnamed_addr constant [6 x i8] c"error\00", align 1
@.str.3 = private unnamed_addr constant [4 x i8] c"yes\00", align 1
@.str.4 = private unnamed_addr constant [3 x i8] c"no\00", align 1

; Function Attrs: noinline nounwind uwtable
define dso_local i32 @main() #0 {
  %1 = alloca i32, align 4
  %2 = alloca i32, align 4
  %3 = alloca i32, align 4
  %4 = alloca i32, align 4
  %5 = alloca i32, align 4
  %6 = alloca i32, align 4
  %7 = alloca i32, align 4
  %8 = alloca double, align 8
  %9 = alloca double, align 8
  %10 = alloca [501 x i8], align 16
  %11 = alloca [500 x i8], align 16
  store i32 0, i32* %1, align 4
  store i32 0, i32* %6, align 4
  store i32 0, i32* %7, align 4
  %12 = call i32 (i8*, ...) @__isoc99_scanf(i8* getelementptr inbounds ([4 x i8], [4 x i8]* @.str, i64 0, i64 0), double* %8)
  %13 = getelementptr inbounds [501 x i8], [501 x i8]* %10, i64 0, i64 0
  %14 = call i32 (i8*, ...) @__isoc99_scanf(i8* getelementptr inbounds ([3 x i8], [3 x i8]* @.str.1, i64 0, i64 0), i8* %13)
  %15 = getelementptr inbounds [500 x i8], [500 x i8]* %11, i64 0, i64 0
  %16 = call i32 (i8*, ...) @__isoc99_scanf(i8* getelementptr inbounds ([3 x i8], [3 x i8]* @.str.1, i64 0, i64 0), i8* %15)
  %17 = getelementptr inbounds [501 x i8], [501 x i8]* %10, i64 0, i64 0
  %18 = call i64 @strlen(i8* %17) #3
  %19 = trunc i64 %18 to i32
  store i32 %19, i32* %4, align 4
  %20 = getelementptr inbounds [500 x i8], [500 x i8]* %11, i64 0, i64 0
  %21 = call i64 @strlen(i8* %20) #3
  %22 = trunc i64 %21 to i32
  store i32 %22, i32* %5, align 4
  store i32 0, i32* %2, align 4
  br label %23

23:                                               ; preds = %62, %0
  %24 = load i32, i32* %2, align 4
  %25 = sext i32 %24 to i64
  %26 = getelementptr inbounds [501 x i8], [501 x i8]* %10, i64 0, i64 %25
  %27 = load i8, i8* %26, align 1
  %28 = sext i8 %27 to i32
  %29 = icmp ne i32 %28, 0
  br i1 %29, label %30, label %65

30:                                               ; preds = %23
  %31 = load i32, i32* %2, align 4
  %32 = sext i32 %31 to i64
  %33 = getelementptr inbounds [501 x i8], [501 x i8]* %10, i64 0, i64 %32
  %34 = load i8, i8* %33, align 1
  %35 = sext i8 %34 to i32
  %36 = icmp ne i32 %35, 65
  br i1 %36, label %37, label %61

37:                                               ; preds = %30
  %38 = load i32, i32* %2, align 4
  %39 = sext i32 %38 to i64
  %40 = getelementptr inbounds [501 x i8], [501 x i8]* %10, i64 0, i64 %39
  %41 = load i8, i8* %40, align 1
  %42 = sext i8 %41 to i32
  %43 = icmp ne i32 %42, 71
  br i1 %43, label %44, label %61

44:                                               ; preds = %37
  %45 = load i32, i32* %2, align 4
  %46 = sext i32 %45 to i64
  %47 = getelementptr inbounds [501 x i8], [501 x i8]* %10, i64 0, i64 %46
  %48 = load i8, i8* %47, align 1
  %49 = sext i8 %48 to i32
  %50 = icmp ne i32 %49, 67
  br i1 %50, label %51, label %61

51:                                               ; preds = %44
  %52 = load i32, i32* %2, align 4
  %53 = sext i32 %52 to i64
  %54 = getelementptr inbounds [501 x i8], [501 x i8]* %10, i64 0, i64 %53
  %55 = load i8, i8* %54, align 1
  %56 = sext i8 %55 to i32
  %57 = icmp ne i32 %56, 84
  br i1 %57, label %58, label %61

58:                                               ; preds = %51
  %59 = load i32, i32* %7, align 4
  %60 = add nsw i32 %59, 1
  store i32 %60, i32* %7, align 4
  br label %61

61:                                               ; preds = %58, %51, %44, %37, %30
  br label %62

62:                                               ; preds = %61
  %63 = load i32, i32* %2, align 4
  %64 = add nsw i32 %63, 1
  store i32 %64, i32* %2, align 4
  br label %23

65:                                               ; preds = %23
  store i32 0, i32* %2, align 4
  br label %66

66:                                               ; preds = %105, %65
  %67 = load i32, i32* %2, align 4
  %68 = sext i32 %67 to i64
  %69 = getelementptr inbounds [500 x i8], [500 x i8]* %11, i64 0, i64 %68
  %70 = load i8, i8* %69, align 1
  %71 = sext i8 %70 to i32
  %72 = icmp ne i32 %71, 0
  br i1 %72, label %73, label %108

73:                                               ; preds = %66
  %74 = load i32, i32* %2, align 4
  %75 = sext i32 %74 to i64
  %76 = getelementptr inbounds [500 x i8], [500 x i8]* %11, i64 0, i64 %75
  %77 = load i8, i8* %76, align 1
  %78 = sext i8 %77 to i32
  %79 = icmp ne i32 %78, 65
  br i1 %79, label %80, label %104

80:                                               ; preds = %73
  %81 = load i32, i32* %2, align 4
  %82 = sext i32 %81 to i64
  %83 = getelementptr inbounds [500 x i8], [500 x i8]* %11, i64 0, i64 %82
  %84 = load i8, i8* %83, align 1
  %85 = sext i8 %84 to i32
  %86 = icmp ne i32 %85, 71
  br i1 %86, label %87, label %104

87:                                               ; preds = %80
  %88 = load i32, i32* %2, align 4
  %89 = sext i32 %88 to i64
  %90 = getelementptr inbounds [500 x i8], [500 x i8]* %11, i64 0, i64 %89
  %91 = load i8, i8* %90, align 1
  %92 = sext i8 %91 to i32
  %93 = icmp ne i32 %92, 67
  br i1 %93, label %94, label %104

94:                                               ; preds = %87
  %95 = load i32, i32* %2, align 4
  %96 = sext i32 %95 to i64
  %97 = getelementptr inbounds [500 x i8], [500 x i8]* %11, i64 0, i64 %96
  %98 = load i8, i8* %97, align 1
  %99 = sext i8 %98 to i32
  %100 = icmp ne i32 %99, 84
  br i1 %100, label %101, label %104

101:                                              ; preds = %94
  %102 = load i32, i32* %7, align 4
  %103 = add nsw i32 %102, 1
  store i32 %103, i32* %7, align 4
  br label %104

104:                                              ; preds = %101, %94, %87, %80, %73
  br label %105

105:                                              ; preds = %104
  %106 = load i32, i32* %2, align 4
  %107 = add nsw i32 %106, 1
  store i32 %107, i32* %2, align 4
  br label %66

108:                                              ; preds = %66
  %109 = load i32, i32* %7, align 4
  %110 = icmp sgt i32 %109, 0
  br i1 %110, label %111, label %113

111:                                              ; preds = %108
  %112 = call i32 (i8*, ...) @printf(i8* getelementptr inbounds ([6 x i8], [6 x i8]* @.str.2, i64 0, i64 0))
  br label %166

113:                                              ; preds = %108
  %114 = load i32, i32* %7, align 4
  %115 = icmp eq i32 %114, 0
  br i1 %115, label %116, label %165

116:                                              ; preds = %113
  %117 = load i32, i32* %4, align 4
  %118 = load i32, i32* %5, align 4
  %119 = icmp eq i32 %117, %118
  br i1 %119, label %120, label %162

120:                                              ; preds = %116
  store i32 0, i32* %2, align 4
  br label %121

121:                                              ; preds = %144, %120
  %122 = load i32, i32* %2, align 4
  %123 = sext i32 %122 to i64
  %124 = getelementptr inbounds [501 x i8], [501 x i8]* %10, i64 0, i64 %123
  %125 = load i8, i8* %124, align 1
  %126 = sext i8 %125 to i32
  %127 = icmp ne i32 %126, 0
  br i1 %127, label %128, label %147

128:                                              ; preds = %121
  %129 = load i32, i32* %2, align 4
  %130 = sext i32 %129 to i64
  %131 = getelementptr inbounds [501 x i8], [501 x i8]* %10, i64 0, i64 %130
  %132 = load i8, i8* %131, align 1
  %133 = sext i8 %132 to i32
  %134 = load i32, i32* %2, align 4
  %135 = sext i32 %134 to i64
  %136 = getelementptr inbounds [500 x i8], [500 x i8]* %11, i64 0, i64 %135
  %137 = load i8, i8* %136, align 1
  %138 = sext i8 %137 to i32
  %139 = icmp eq i32 %133, %138
  br i1 %139, label %140, label %143

140:                                              ; preds = %128
  %141 = load i32, i32* %6, align 4
  %142 = add nsw i32 %141, 1
  store i32 %142, i32* %6, align 4
  br label %143

143:                                              ; preds = %140, %128
  br label %144

144:                                              ; preds = %143
  %145 = load i32, i32* %2, align 4
  %146 = add nsw i32 %145, 1
  store i32 %146, i32* %2, align 4
  br label %121

147:                                              ; preds = %121
  %148 = load i32, i32* %6, align 4
  %149 = sitofp i32 %148 to double
  %150 = fmul double %149, 1.000000e+00
  %151 = load i32, i32* %4, align 4
  %152 = sitofp i32 %151 to double
  %153 = fdiv double %150, %152
  store double %153, double* %9, align 8
  %154 = load double, double* %9, align 8
  %155 = load double, double* %8, align 8
  %156 = fcmp ogt double %154, %155
  br i1 %156, label %157, label %159

157:                                              ; preds = %147
  %158 = call i32 (i8*, ...) @printf(i8* getelementptr inbounds ([4 x i8], [4 x i8]* @.str.3, i64 0, i64 0))
  br label %161

159:                                              ; preds = %147
  %160 = call i32 (i8*, ...) @printf(i8* getelementptr inbounds ([3 x i8], [3 x i8]* @.str.4, i64 0, i64 0))
  br label %161

161:                                              ; preds = %159, %157
  br label %164

162:                                              ; preds = %116
  %163 = call i32 (i8*, ...) @printf(i8* getelementptr inbounds ([6 x i8], [6 x i8]* @.str.2, i64 0, i64 0))
  br label %164

164:                                              ; preds = %162, %161
  br label %165

165:                                              ; preds = %164, %113
  br label %166

166:                                              ; preds = %165, %111
  ret i32 0
}

declare dso_local i32 @__isoc99_scanf(i8*, ...) #1

; Function Attrs: nounwind readonly
declare dso_local i64 @strlen(i8*) #2

declare dso_local i32 @printf(i8*, ...) #1


!llvm.module.flags = !{!0}
!llvm.ident = !{!1}

!0 = !{i32 1, !"wchar_size", i32 4}
!1 = !{!"clang version 10.0.0-4ubuntu1 "}
